Certificate:
    Data:
        Version: 3 (0x2)
        Serial Number: 2032030655706794287 (0x1c33391d7e1b892f)
        Signature Algorithm: sha256WithRSAEncryption
        Issuer: CN = minica root ca 1c3339
        Validity
            Not Before: Apr  1 16:45:51 2023 GMT
            Not After : Apr  1 16:45:51 2123 GMT
        Subject: CN = minica root ca 1c3339
        Subject Public Key Info:
            Public Key Algorithm: rsaEncryption
                Public-Key: (2048 bit)
                Modulus:
                    00:e6:f5:9a:f0:9f:01:d5:63:e5:c0:37:6d:d3:ca:
                    b5:5b:d5:c5:56:81:68:a0:c5:e7:05:4c:c6:ef:db:
                    26:7c:e3:51:ce:9b:e6:16:79:e4:d1:3e:67:dd:ad:
                    66:82:98:cd:d5:ba:48:40:97:e4:2b:05:9d:bf:af:
                    85:2a:82:0f:63:42:3d:7e:89:96:8d:18:59:72:16:
                    02:c4:a2:e7:3a:cd:b8:32:cf:3f:7e:98:ae:94:42:
                    00:53:27:25:cd:93:46:35:78:e9:d7:1a:c3:b1:f8:
                    8a:ea:e8:5b:4d:9a:06:05:51:5b:51:86:15:37:ce:
                    93:02:35:90:3f:55:3c:f5:3e:2c:ad:90:b9:a3:f8:
                    52:42:29:c0:1f:27:86:b2:71:02:0e:1e:49:78:9b:
                    35:d5:82:a7:e0:7f:3e:69:d6:5e:d4:19:fc:67:76:
                    89:61:9c:a7:b0:b9:5c:07:a4:02:6f:ee:a5:11:d7:
                    be:45:2d:d9:59:5a:fa:7c:bf:d7:59:fd:56:6d:b6:
                    4a:55:db:38:8e:3a:ea:21:fd:54:ba:04:ff:64:52:
                    4f:82:a8:04:94:8c:42:36:21:b3:8a:6d:16:87:62:
                    3f:01:3f:bb:f5:58:e9:8c:b7:09:3a:eb:68:37:09:
                    d3:73:df:a3:31:ad:ee:14:0e:d7:91:3b:4b:d3:b3:
                    d3:81
                Exponent: 65537 (0x10001)
        X509v3 extensions:
            X509v3 Key Usage: critical
                Digital Signature, Certificate Sign
            X509v3 Extended Key Usage:
                TLS Web Server Authentication, TLS Web Client Authentication
            X509v3 Basic Constraints: critical
                CA:TRUE, pathlen:0
            X509v3 Subject Key Identifier:
                68:D6:7F:56:B7:E7:2E:33:46:E9:3F:07:A1:FA:59:45:D9:6C:8C:78
            X509v3 Authority Key Identifier:
                68:D6:7F:56:B7:E7:2E:33:46:E9:3F:07:A1:FA:59:45:D9:6C:8C:78
    Signature Algorithm: sha256WithRSAEncryption
    Signature Value:
        03:f3:66:18:c0:a3:16:7d:70:3b:5f:a4:c3:4d:fa:5a:b1:52:
        8a:80:05:a0:22:b6:8e:79:71:0b:28:c2:c2:76:b9:d7:eb:b0:
        c7:a5:76:27:f4:ff:0f:43:cc:81:b8:c1:3c:e7:a0:5c:a9:69:
        1c:f4:58:8c:94:9a:92:72:a1:d6:fe:8c:1e:a5:d1:3f:41:92:
        ba:94:3e:07:8d:8f:27:37:45:03:fa:01:04:9c:a4:a4:0d:c9:
        67:cc:d4:a0:7e:92:0c:e0:d6:25:73:3c:18:4a:f2:2c:a4:9a:
        18:99:a5:39:41:79:22:ed:72:68:76:70:90:88:2d:a0:d1:a9:
        94:7b:ce:53:ff:13:b4:ee:f8:9c:f1:03:41:69:44:8f:d1:e1:
        dc:e7:35:16:e3:ca:98:6f:79:a2:1e:d1:4f:fa:25:e3:e0:56:
        79:20:9a:86:b5:c6:92:16:75:b8:f1:df:ce:df:62:ae:85:6f:
        e7:37:c5:55:c7:0b:54:01:fa:3c:bb:1c:fe:b0:c1:42:f4:45:
        38:cd:e1:a7:fa:b2:2e:d6:f2:9a:17:2f:07:10:53:74:92:84:
        8f:57:16:c8:e0:3e:a8:89:2d:3c:2b:6d:29:2a:30:b5:1f:7d:
        4b:ae:94:7b:0c:7a:ac:d9:bb:6b:45:e0:fb:8e:6d:1b:84:bc:
        b4:69:dc:ff

-----BEGIN CERTIFICATE-----
MIIDSzCCAjOgAwIBAgIIHDM5HX4biS8wDQYJKoZIhvcNAQELBQAwIDEeMBwGA1UE
AxMVbWluaWNhIHJvb3QgY2EgMWMzMzM5MCAXDTIzMDQwMTE2NDU1MVoYDzIxMjMw
NDAxMTY0NTUxWjAgMR4wHAYDVQQDExVtaW5pY2Egcm9vdCBjYSAxYzMzMzkwggEi
MA0GCSqGSIb3DQEBAQUAA4IBDwAwggEKAoIBAQDm9ZrwnwHVY+XAN23TyrVb1cVW
gWigxecFTMbv2yZ841HOm+YWeeTRPmfdrWaCmM3VukhAl+QrBZ2/r4Uqgg9jQj1+
iZaNGFlyFgLEouc6zbgyzz9+mK6UQgBTJyXNk0Y1eOnXGsOx+Irq6FtNmgYFUVtR
hhU3zpMCNZA/VTz1PiytkLmj+FJCKcAfJ4aycQIOHkl4mzXVgqfgfz5p1l7UGfxn
dolhnKewuVwHpAJv7qUR175FLdlZWvp8v9dZ/VZttkpV2ziOOuoh/VS6BP9kUk+C
qASUjEI2IbOKbRaHYj8BP7v1WOmMtwk662g3CdNz36Mxre4UDteRO0vTs9OBAgMB
AAGjgYYwgYMwDgYDVR0PAQH/BAQDAgKEMB0GA1UdJQQWMBQGCCsGAQUFBwMBBggr
BgEFBQcDAjASBgNVHRMBAf8ECDAGAQH/AgEAMB0GA1UdDgQWBBRo1n9Wt+cuM0bp
Pweh+llF2WyMeDAfBgNVHSMEGDAWgBRo1n9Wt+cuM0bpPweh+llF2WyMeDANBgkq
hkiG9w0BAQsFAAOCAQEAA/NmGMCjFn1wO1+kw036WrFSioAFoCK2jnlxCyjCwna5
1+uwx6V2J/T/D0PMgbjBPOegXKlpHPRYjJSaknKh1v6MHqXRP0GSupQ+B42PJzdF
A/oBBJykpA3JZ8zUoH6SDODWJXM8GEryLKSaGJmlOUF5Iu1yaHZwkIgtoNGplHvO
U/8TtO74nPEDQWlEj9Hh3Oc1FuPKmG95oh7RT/ol4+BWeSCahrXGkhZ1uPHfzt9i
roVv5zfFVccLVAH6PLsc/rDBQvRFOM3hp/qyLtbymhcvBxBTdJKEj1cWyOA+qIkt
PCttKSowtR99S66Uewx6rNm7a0Xg+45tG4S8tGnc/w==
-----END CERTIFICATE-----
