Certificate:
    Data:
        Version: 3 (0x2)
        Serial Number: 6193811330118575006 (0x55f4d696a981e39e)
        Signature Algorithm: sha256WithRSAEncryption
        Issuer: CN = minica root ca 1c3339
        Validity
            Not Before: Apr  1 16:45:51 2023 GMT
            Not After : May  1 16:45:51 2025 GMT
        Subject: CN = localhost
        Subject Public Key Info:
            Public Key Algorithm: rsaEncryption
                Public-Key: (2048 bit)
                Modulus:
                    00:cb:c1:ff:cb:f8:e9:08:1a:91:8d:c9:5d:fc:2c:
                    dd:22:d4:7c:b1:b3:c5:b4:4c:15:d3:3a:85:d0:eb:
                    60:3d:23:a8:47:a2:19:fd:0e:83:56:4c:e2:ee:40:
                    37:fa:61:1b:34:89:2d:42:d1:6a:17:ae:64:07:86:
                    9f:b7:3c:c9:49:e8:78:be:6a:30:4c:af:20:b1:04:
                    d9:aa:68:03:b1:b5:d6:51:86:ab:e3:de:ed:9d:ea:
                    0a:bb:96:42:ec:45:c9:1f:49:82:f0:fa:86:bc:12:
                    32:6a:74:8c:84:c4:59:96:54:6d:3c:1c:8c:5f:c6:
                    dd:49:ef:23:d7:fa:db:92:44:d4:e8:c0:a2:69:15:
                    e2:b0:5f:15:0f:f1:2d:21:76:87:e9:19:c3:1f:e7:
                    7d:bc:ef:77:a3:84:ca:01:ae:71:6b:58:73:a9:01:
                    2d:80:3c:68:8e:57:cb:68:c8:af:65:34:99:bd:01:
                    83:28:35:af:24:7f:40:63:75:7f:e8:ee:ac:2f:5c:
                    ee:44:1c:c3:45:5c:65:81:8e:52:7a:7a:c2:bb:a5:
                    c4:ff:c1:e7:dc:3e:2f:c3:2e:67:37:6d:7d:5f:c0:
                    92:91:d2:24:c9:a5:8f:ba:06:04:87:79:f9:cc:94:
                    9f:c5:4b:2d:17:fc:1a:a7:9f:f6:9d:b6:eb:19:7a:
                    9f:af
                Exponent: 65537 (0x10001)
        X509v3 extensions:
            X509v3 Key Usage: critical
                Digital Signature, Key Encipherment
            X509v3 Extended Key Usage:
                TLS Web Server Authentication, TLS Web Client Authentication
            X509v3 Basic Constraints: critical
                CA:FALSE
            X509v3 Authority Key Identifier:
                68:D6:7F:56:B7:E7:2E:33:46:E9:3F:07:A1:FA:59:45:D9:6C:8C:78
            X509v3 Subject Alternative Name:
                DNS:localhost
    Signature Algorithm: sha256WithRSAEncryption
    Signature Value:
        12:80:cd:84:78:b1:19:42:2b:73:87:d1:ed:22:e5:27:8a:f1:
        8c:0e:ac:e9:0a:6b:a2:0f:37:7e:42:1f:ed:36:2e:a4:ca:1b:
        49:3d:e1:2a:92:d3:7b:68:c0:15:bc:d0:0c:17:c2:3a:cd:c4:
        b8:46:cc:2e:9e:ec:03:04:c7:fc:f9:bb:aa:ab:d4:cd:b5:cc:
        44:5b:7a:1d:d3:5b:96:d7:96:d6:81:c4:b6:77:59:4f:86:f9:
        14:15:4c:c1:87:6d:cc:ee:d8:51:c0:b8:91:d9:ac:66:b5:2d:
        fd:c4:df:bf:b7:6b:35:f2:92:23:dc:19:7d:98:ca:06:17:e1:
        59:86:e5:03:1f:b4:0c:d4:28:a3:3a:00:65:3c:aa:8f:9a:56:
        94:78:e4:77:b0:53:53:d3:cd:e1:17:72:7c:70:64:d2:7f:cb:
        36:52:f6:72:46:32:d3:fd:ed:05:bc:97:09:36:94:a3:59:8b:
        ed:02:df:9f:da:de:64:8b:9a:2b:2f:38:ee:cb:92:c1:53:d9:
        f5:ca:58:45:4e:aa:b4:5a:92:5c:96:65:89:43:ce:64:9c:62:
        ba:c8:ef:97:6f:09:5d:10:f1:1b:ce:f7:ff:ba:ca:00:2a:bc:
        5e:d4:d1:41:a2:6d:2a:04:3a:fd:3e:8d:d3:0f:f5:fa:0b:fb:
        6c:d5:77:c6

-----BEGIN CERTIFICATE-----
MIIDLDCCAhSgAwIBAgIIVfTWlqmB454wDQYJKoZIhvcNAQELBQAwIDEeMBwGA1UE
AxMVbWluaWNhIHJvb3QgY2EgMWMzMzM5MB4XDTIzMDQwMTE2NDU1MVoXDTI1MDUw
MTE2NDU1MVowFDESMBAGA1UEAxMJbG9jYWxob3N0MIIBIjANBgkqhkiG9w0BAQEF
AAOCAQ8AMIIBCgKCAQEAy8H/y/jpCBqRjcld/CzdItR8sbPFtEwV0zqF0OtgPSOo
R6IZ/Q6DVkzi7kA3+mEbNIktQtFqF65kB4aftzzJSeh4vmowTK8gsQTZqmgDsbXW
UYar497tneoKu5ZC7EXJH0mC8PqGvBIyanSMhMRZllRtPByMX8bdSe8j1/rbkkTU
6MCiaRXisF8VD/EtIXaH6RnDH+d9vO93o4TKAa5xa1hzqQEtgDxojlfLaMivZTSZ
vQGDKDWvJH9AY3V/6O6sL1zuRBzDRVxlgY5SenrCu6XE/8Hn3D4vwy5nN219X8CS
kdIkyaWPugYEh3n5zJSfxUstF/wap5/2nbbrGXqfrwIDAQABo3YwdDAOBgNVHQ8B
Af8EBAMCBaAwHQYDVR0lBBYwFAYIKwYBBQUHAwEGCCsGAQUFBwMCMAwGA1UdEwEB
/wQCMAAwHwYDVR0jBBgwFoAUaNZ/VrfnLjNG6T8HofpZRdlsjHgwFAYDVR0RBA0w
C4IJbG9jYWxob3N0MA0GCSqGSIb3DQEBCwUAA4IBAQASgM2EeLEZQitzh9HtIuUn
ivGMDqzpCmuiDzd+Qh/tNi6kyhtJPeEqktN7aMAVvNAMF8I6zcS4RswunuwDBMf8
+buqq9TNtcxEW3od01uW15bWgcS2d1lPhvkUFUzBh23M7thRwLiR2axmtS39xN+/
t2s18pIj3Bl9mMoGF+FZhuUDH7QM1CijOgBlPKqPmlaUeOR3sFNT083hF3J8cGTS
f8s2UvZyRjLT/e0FvJcJNpSjWYvtAt+f2t5ki5orLzjuy5LBU9n1ylhFTqq0WpJc
lmWJQ85knGK6yO+XbwldEPEbzvf/usoAKrxe1NFBom0qBDr9Po3TD/X6C/ts1XfG
-----END CERTIFICATE-----
